; Function Attrs: mustprogress uwtable
define dso_local noundef i64 @_ZNK3net21QuicSentPacketManager23GetNewestRetransmissionEmRKNS_16TransmissionInfoE(ptr noundef nonnull align 8 dereferenceable(776) %this, i64 noundef %packet_number, ptr nocapture noundef nonnull readonly align 8 dereferenceable(80) %transmission_info) local_unnamed_addr #0 align 2 {
entry:
  %retransmission.0.in3 = getelementptr inbounds i8, ptr %transmission_info, i64 48
  %retransmission.04 = load i64, ptr %retransmission.0.in3, align 8
  %cmp.not5 = icmp eq i64 %retransmission.04, 0
  br i1 %cmp.not5, label %while.end, label %while.body.lr.ph

while.body.lr.ph:                                 ; preds = %entry
  %unacked_packets_ = getelementptr inbounds i8, ptr %this, i64 8
  br label %while.body

while.body:                                       ; preds = %while.body.lr.ph, %while.body
  %retransmission.06 = phi i64 [ %retransmission.04, %while.body.lr.ph ], [ %retransmission.0, %while.body ]
  %call = tail call noundef nonnull align 8 dereferenceable(80) ptr @_ZNK3net20QuicUnackedPacketMap19GetTransmissionInfoEm(ptr noundef nonnull align 8 dereferenceable(120) %unacked_packets_, i64 noundef %retransmission.06)
  %retransmission.0.in = getelementptr inbounds i8, ptr %call, i64 48
  %retransmission.0 = load i64, ptr %retransmission.0.in, align 8
  %cmp.not = icmp eq i64 %retransmission.0, 0
  br i1 %cmp.not, label %while.end, label %while.body, !llvm.loop !29

while.end:                                        ; preds = %while.body, %entry
  %packet_number.addr.0.lcssa = phi i64 [ %packet_number, %entry ], [ %retransmission.06, %while.body ]
  ret i64 %packet_number.addr.0.lcssa
}